target datalayout = "e-m:e-p270:32:32-p271:32:32-p272:64:64-i64:64-i128:128-f80:128-n8:16:32:64-S128"
target triple = "x86_64-pc-linux-gnu"

%struct.ident_t = type { i32, i32, i32, i32, ptr }
%"class.ncnn::InnerProduct" = type { %"class.ncnn::Layer", i32, i32, i32, i32, i32, %"class.ncnn::Mat", %"class.ncnn::Mat", %"class.ncnn::Mat", %"class.ncnn::Mat", %"class.ncnn::Mat" }
%"class.ncnn::Layer" = type { ptr, i8, i8, i8, i8, i8, i8, i8, i8, i8, i8, i8, i8, i8, i8, i8, i8, i8, i8, i8, i8, i32, ptr, i32, %"class.std::__cxx11::basic_string", %"class.std::__cxx11::basic_string", %"class.std::vector", %"class.std::vector", %"class.std::vector.3", %"class.std::vector.3" }
%"class.std::__cxx11::basic_string" = type { %"struct.std::__cxx11::basic_string<char>::_Alloc_hider", i64, %union.anon }
%"struct.std::__cxx11::basic_string<char>::_Alloc_hider" = type { ptr }
%union.anon = type { i64, [8 x i8] }
%"class.std::vector" = type { %"struct.std::_Vector_base" }
%"struct.std::_Vector_base" = type { %"struct.std::_Vector_base<int, std::allocator<int>>::_Vector_impl" }
%"struct.std::_Vector_base<int, std::allocator<int>>::_Vector_impl" = type { %"struct.std::_Vector_base<int, std::allocator<int>>::_Vector_impl_data" }
%"struct.std::_Vector_base<int, std::allocator<int>>::_Vector_impl_data" = type { ptr, ptr, ptr }
%"class.std::vector.3" = type { %"struct.std::_Vector_base.4" }
%"struct.std::_Vector_base.4" = type { %"struct.std::_Vector_base<ncnn::Mat, std::allocator<ncnn::Mat>>::_Vector_impl" }
%"struct.std::_Vector_base<ncnn::Mat, std::allocator<ncnn::Mat>>::_Vector_impl" = type { %"struct.std::_Vector_base<ncnn::Mat, std::allocator<ncnn::Mat>>::_Vector_impl_data" }
%"struct.std::_Vector_base<ncnn::Mat, std::allocator<ncnn::Mat>>::_Vector_impl_data" = type { ptr, ptr, ptr }
%"class.ncnn::Mat" = type { ptr, ptr, i64, i32, ptr, i32, i32, i32, i32, i32, i64 }
%"class.ncnn::Option" = type { i8, i32, ptr, ptr, i32, i8, i8, i8, i8, i8, i8, i8, i8, i8, i8, i8, i8, i8, i8, i8, i8, i8, i8, i8, i8, i32, i8, i8, i8, i8, i8, i8, i8, i8, i8, i8, i8, i8 }

@2 = private unnamed_addr constant %struct.ident_t { i32 0, i32 2, i32 0, i32 22, ptr @0 }, align 8

; Function Attrs: alwaysinline mustprogress nounwind uwtable
define linkonce_odr hidden noundef i64 @_ZNK4ncnn3Mat5totalEv(ptr noundef nonnull align 8 dereferenceable(72) %0) #3 comdat align 2 {
  %2 = alloca ptr, align 8
  store ptr %0, ptr %2, align 8, !tbaa !46
  %3 = load ptr, ptr %2, align 8
  %4 = getelementptr inbounds nuw %"class.ncnn::Mat", ptr %3, i32 0, i32 10
  %5 = load i64, ptr %4, align 8, !tbaa !66
  %6 = getelementptr inbounds nuw %"class.ncnn::Mat", ptr %3, i32 0, i32 9
  %7 = load i32, ptr %6, align 8, !tbaa !54
  %8 = sext i32 %7 to i64
  %9 = mul i64 %5, %8
  ret i64 %9
}

; Function Attrs: alwaysinline mustprogress uwtable
define linkonce_odr hidden noundef zeroext i1 @_ZNK4ncnn3Mat5emptyEv(ptr noundef nonnull align 8 dereferenceable(72) %0) #5 comdat align 2 {
  %2 = alloca ptr, align 8
  store ptr %0, ptr %2, align 8, !tbaa !46
  %3 = load ptr, ptr %2, align 8
  %4 = getelementptr inbounds nuw %"class.ncnn::Mat", ptr %3, i32 0, i32 0
  %5 = load ptr, ptr %4, align 8, !tbaa !61
  %6 = icmp eq ptr %5, null
  br i1 %6, label %10, label %7

7:                                                ; preds = %1
  %8 = call noundef i64 @_ZNK4ncnn3Mat5totalEv(ptr noundef nonnull align 8 dereferenceable(72) %3)
  %9 = icmp eq i64 %8, 0
  br label %10

10:                                               ; preds = %7, %1
  %11 = phi i1 [ true, %1 ], [ %9, %7 ]
  ret i1 %11
}

; Function Attrs: mustprogress uwtable
define hidden noundef i32 @_ZNK4ncnn12InnerProduct7forwardERKNS_3MatERS1_RKNS_6OptionE(ptr noundef nonnull align 8 dereferenceable(592) %0, ptr noundef nonnull align 8 dereferenceable(72) %1, ptr noundef nonnull align 8 dereferenceable(72) %2, ptr noundef nonnull align 8 dereferenceable(64) %3) unnamed_addr #1 align 2 {
  %5 = alloca i32, align 4
  %6 = alloca ptr, align 8
  %7 = alloca ptr, align 8
  %8 = alloca ptr, align 8
  %9 = alloca ptr, align 8
  %10 = alloca i32, align 4
  %11 = alloca i32, align 4
  %12 = alloca i32, align 4
  %13 = alloca i32, align 4
  %14 = alloca i64, align 8
  %15 = alloca i32, align 4
  %16 = alloca i32, align 4
  %17 = call i32 @__kmpc_global_thread_num(ptr @2)
  store ptr %0, ptr %6, align 8, !tbaa !4
  store ptr %1, ptr %7, align 8, !tbaa !46
  store ptr %2, ptr %8, align 8, !tbaa !46
  store ptr %3, ptr %9, align 8, !tbaa !47
  %18 = load ptr, ptr %6, align 8
  %19 = load ptr, ptr %9, align 8, !tbaa !47
  %20 = getelementptr inbounds nuw %"class.ncnn::Option", ptr %19, i32 0, i32 7
  %21 = load i8, ptr %20, align 2, !tbaa !49, !range !50, !noundef !51
  %22 = trunc i8 %21 to i1
  br i1 %22, label %23, label %33

23:                                               ; preds = %4
  %24 = getelementptr inbounds nuw %"class.ncnn::InnerProduct", ptr %18, i32 0, i32 7
  %25 = getelementptr inbounds nuw %"class.ncnn::Mat", ptr %24, i32 0, i32 2
  %26 = load i64, ptr %25, align 8, !tbaa !41
  %27 = icmp eq i64 %26, 1
  br i1 %27, label %28, label %33

28:                                               ; preds = %23
  %29 = load ptr, ptr %7, align 8, !tbaa !46
  %30 = load ptr, ptr %8, align 8, !tbaa !46
  %31 = load ptr, ptr %9, align 8, !tbaa !47
  %32 = call noundef i32 @_ZNK4ncnn12InnerProduct12forward_int8ERKNS_3MatERS1_RKNS_6OptionE(ptr noundef nonnull align 8 dereferenceable(592) %18, ptr noundef nonnull align 8 dereferenceable(72) %29, ptr noundef nonnull align 8 dereferenceable(72) %30, ptr noundef nonnull align 8 dereferenceable(64) %31)
  store i32 %32, ptr %5, align 4
  br label %98

33:                                               ; preds = %23, %4
  call void @llvm.lifetime.start.p0(i64 4, ptr %10) #9
  %34 = getelementptr inbounds nuw %"class.ncnn::InnerProduct", ptr %18, i32 0, i32 3
  %35 = load i32, ptr %34, align 8, !tbaa !35
  %36 = getelementptr inbounds nuw %"class.ncnn::InnerProduct", ptr %18, i32 0, i32 1
  %37 = load i32, ptr %36, align 8, !tbaa !13
  %38 = sdiv i32 %35, %37
  store i32 %38, ptr %10, align 4, !tbaa !42
  call void @llvm.lifetime.start.p0(i64 4, ptr %11) #9
  %39 = load ptr, ptr %7, align 8, !tbaa !46
  %40 = getelementptr inbounds nuw %"class.ncnn::Mat", ptr %39, i32 0, i32 6
  %41 = load i32, ptr %40, align 4, !tbaa !52
  store i32 %41, ptr %11, align 4, !tbaa !42
  call void @llvm.lifetime.start.p0(i64 4, ptr %12) #9
  %42 = load ptr, ptr %7, align 8, !tbaa !46
  %43 = getelementptr inbounds nuw %"class.ncnn::Mat", ptr %42, i32 0, i32 7
  %44 = load i32, ptr %43, align 8, !tbaa !53
  store i32 %44, ptr %12, align 4, !tbaa !42
  call void @llvm.lifetime.start.p0(i64 4, ptr %13) #9
  %45 = load ptr, ptr %7, align 8, !tbaa !46
  %46 = getelementptr inbounds nuw %"class.ncnn::Mat", ptr %45, i32 0, i32 9
  %47 = load i32, ptr %46, align 8, !tbaa !54
  store i32 %47, ptr %13, align 4, !tbaa !42
  call void @llvm.lifetime.start.p0(i64 8, ptr %14) #9
  %48 = load ptr, ptr %7, align 8, !tbaa !46
  %49 = getelementptr inbounds nuw %"class.ncnn::Mat", ptr %48, i32 0, i32 2
  %50 = load i64, ptr %49, align 8, !tbaa !55
  store i64 %50, ptr %14, align 8, !tbaa !56
  call void @llvm.lifetime.start.p0(i64 4, ptr %15) #9
  %51 = load i32, ptr %11, align 4, !tbaa !42
  %52 = load i32, ptr %12, align 4, !tbaa !42
  %53 = mul nsw i32 %51, %52
  store i32 %53, ptr %15, align 4, !tbaa !42
  %54 = load ptr, ptr %7, align 8, !tbaa !46
  %55 = getelementptr inbounds nuw %"class.ncnn::Mat", ptr %54, i32 0, i32 5
  %56 = load i32, ptr %55, align 8, !tbaa !57
  %57 = icmp eq i32 %56, 2
  br i1 %57, label %58, label %80

58:                                               ; preds = %33
  %59 = load i32, ptr %11, align 4, !tbaa !42
  %60 = load i32, ptr %10, align 4, !tbaa !42
  %61 = icmp eq i32 %59, %60
  br i1 %61, label %62, label %80

62:                                               ; preds = %58
  %63 = load ptr, ptr %8, align 8, !tbaa !46
  %64 = getelementptr inbounds nuw %"class.ncnn::InnerProduct", ptr %18, i32 0, i32 1
  %65 = load i32, ptr %64, align 8, !tbaa !13
  %66 = load i32, ptr %12, align 4, !tbaa !42
  %67 = load i64, ptr %14, align 8, !tbaa !56
  %68 = load ptr, ptr %9, align 8, !tbaa !47
  %69 = getelementptr inbounds nuw %"class.ncnn::Option", ptr %68, i32 0, i32 2
  %70 = load ptr, ptr %69, align 8, !tbaa !58
  call void @_ZN4ncnn3Mat6createEiimPNS_9AllocatorE(ptr noundef nonnull align 8 dereferenceable(72) %63, i32 noundef %65, i32 noundef %66, i64 noundef %67, ptr noundef %70)
  %71 = load ptr, ptr %8, align 8, !tbaa !46
  %72 = call noundef zeroext i1 @_ZNK4ncnn3Mat5emptyEv(ptr noundef nonnull align 8 dereferenceable(72) %71)
  br i1 %72, label %73, label %74

73:                                               ; preds = %62
  store i32 -100, ptr %5, align 4
  store i32 1, ptr %16, align 4
  br label %97

74:                                               ; preds = %62
  %75 = load ptr, ptr %9, align 8, !tbaa !47
  %76 = getelementptr inbounds nuw %"class.ncnn::Option", ptr %75, i32 0, i32 1
  %77 = load i32, ptr %76, align 4, !tbaa !43
  call void @__kmpc_push_num_threads(ptr @2, i32 %17, i32 %77)
  %78 = load ptr, ptr %7, align 8, !tbaa !46
  %79 = load ptr, ptr %8, align 8, !tbaa !46
  call void (ptr, i32, ptr, ...) @__kmpc_fork_call(ptr @2, i32 5, ptr @_ZNK4ncnn12InnerProduct7forwardERKNS_3MatERS1_RKNS_6OptionE.omp_outlined, ptr %12, ptr %78, ptr %79, ptr %18, ptr %11)
  store i32 0, ptr %5, align 4
  store i32 1, ptr %16, align 4
  br label %97

80:                                               ; preds = %58, %33
  %81 = load ptr, ptr %8, align 8, !tbaa !46
  %82 = getelementptr inbounds nuw %"class.ncnn::InnerProduct", ptr %18, i32 0, i32 1
  %83 = load i32, ptr %82, align 8, !tbaa !13
  %84 = load i64, ptr %14, align 8, !tbaa !56
  %85 = load ptr, ptr %9, align 8, !tbaa !47
  %86 = getelementptr inbounds nuw %"class.ncnn::Option", ptr %85, i32 0, i32 2
  %87 = load ptr, ptr %86, align 8, !tbaa !58
  call void @_ZN4ncnn3Mat6createEimPNS_9AllocatorE(ptr noundef nonnull align 8 dereferenceable(72) %81, i32 noundef %83, i64 noundef %84, ptr noundef %87)
  %88 = load ptr, ptr %8, align 8, !tbaa !46
  %89 = call noundef zeroext i1 @_ZNK4ncnn3Mat5emptyEv(ptr noundef nonnull align 8 dereferenceable(72) %88)
  br i1 %89, label %90, label %91

90:                                               ; preds = %80
  store i32 -100, ptr %5, align 4
  store i32 1, ptr %16, align 4
  br label %97

91:                                               ; preds = %80
  %92 = load ptr, ptr %9, align 8, !tbaa !47
  %93 = getelementptr inbounds nuw %"class.ncnn::Option", ptr %92, i32 0, i32 1
  %94 = load i32, ptr %93, align 4, !tbaa !43
  call void @__kmpc_push_num_threads(ptr @2, i32 %17, i32 %94)
  %95 = load ptr, ptr %7, align 8, !tbaa !46
  %96 = load ptr, ptr %8, align 8, !tbaa !46
  call void (ptr, i32, ptr, ...) @__kmpc_fork_call(ptr @2, i32 5, ptr @_ZNK4ncnn12InnerProduct7forwardERKNS_3MatERS1_RKNS_6OptionE.omp_outlined.1, ptr %18, ptr %13, ptr %15, ptr %95, ptr %96)
  store i32 0, ptr %5, align 4
  store i32 1, ptr %16, align 4
  br label %97

97:                                               ; preds = %91, %90, %74, %73
  call void @llvm.lifetime.end.p0(i64 4, ptr %15) #9
  call void @llvm.lifetime.end.p0(i64 8, ptr %14) #9
  call void @llvm.lifetime.end.p0(i64 4, ptr %13) #9
  call void @llvm.lifetime.end.p0(i64 4, ptr %12) #9
  call void @llvm.lifetime.end.p0(i64 4, ptr %11) #9
  call void @llvm.lifetime.end.p0(i64 4, ptr %10) #9
  br label %98

98:                                               ; preds = %97, %28
  %99 = load i32, ptr %5, align 4
  ret i32 %99
}