; Function Attrs: mustprogress uwtable
define hidden noundef range(i32 -100, 1) i32 @_ZNK4ncnn12InnerProduct7forwardERKNS_3MatERS1_RKNS_6OptionE(ptr noundef nonnull align 8 dereferenceable(592) %0, ptr noundef nonnull align 8 dereferenceable(72) %1, ptr noundef nonnull align 8 dereferenceable(72) %2, ptr noundef nonnull readonly align 8 captures(none) dereferenceable(64) %3) unnamed_addr #1 align 2 {
  %5 = alloca i32, align 4
  %6 = alloca i32, align 4
  %7 = alloca i32, align 4
  %8 = alloca i32, align 4
  %9 = tail call i32 @__kmpc_global_thread_num(ptr nonnull @2)
  %10 = getelementptr inbounds nuw i8, ptr %3, i64 30
  %11 = load i8, ptr %10, align 2, !tbaa !50, !range !51, !noundef !52
  %12 = trunc nuw i8 %11 to i1
  %13 = getelementptr inbounds nuw i8, ptr %0, i64 320
  %14 = load i64, ptr %13, align 8
  %15 = icmp eq i64 %14, 1
  %or.cond = select i1 %12, i1 %15, i1 false
  br i1 %or.cond, label %16, label %18

16:                                               ; preds = %4
  %17 = tail call noundef i32 @_ZNK4ncnn12InnerProduct12forward_int8ERKNS_3MatERS1_RKNS_6OptionE(ptr noundef nonnull align 8 dereferenceable(592) %0, ptr noundef nonnull align 8 dereferenceable(72) %1, ptr noundef nonnull align 8 dereferenceable(72) %2, ptr noundef nonnull align 8 dereferenceable(64) %3)
  br label %68

18:                                               ; preds = %4
  %19 = getelementptr inbounds nuw i8, ptr %0, i64 216
  %20 = load i32, ptr %19, align 8, !tbaa !35
  %21 = getelementptr inbounds nuw i8, ptr %0, i64 208
  %22 = load i32, ptr %21, align 8, !tbaa !18
  call void @llvm.lifetime.start.p0(i64 4, ptr nonnull %5) #9
  %23 = getelementptr inbounds nuw i8, ptr %1, i64 44
  %24 = load i32, ptr %23, align 4, !tbaa !41
  store i32 %24, ptr %5, align 4, !tbaa !53
  call void @llvm.lifetime.start.p0(i64 4, ptr nonnull %6) #9
  %25 = getelementptr inbounds nuw i8, ptr %1, i64 48
  %26 = load i32, ptr %25, align 8, !tbaa !42
  store i32 %26, ptr %6, align 4, !tbaa !53
  call void @llvm.lifetime.start.p0(i64 4, ptr nonnull %7) #9
  %27 = getelementptr inbounds nuw i8, ptr %1, i64 56
  %28 = load i32, ptr %27, align 8, !tbaa !44
  store i32 %28, ptr %7, align 4, !tbaa !53
  %29 = getelementptr inbounds nuw i8, ptr %1, i64 16
  %30 = load i64, ptr %29, align 8, !tbaa !38
  call void @llvm.lifetime.start.p0(i64 4, ptr nonnull %8) #9
  %31 = mul nsw i32 %26, %24
  store i32 %31, ptr %8, align 4, !tbaa !53
  %32 = getelementptr inbounds nuw i8, ptr %1, i64 40
  %33 = load i32, ptr %32, align 8, !tbaa !40
  %34 = icmp eq i32 %33, 2
  br i1 %34, label %35, label %53

35:                                               ; preds = %18
  %36 = sdiv i32 %20, %22
  %37 = icmp eq i32 %24, %36
  br i1 %37, label %38, label %53

38:                                               ; preds = %35
  %39 = getelementptr inbounds nuw i8, ptr %3, i64 8
  %40 = load ptr, ptr %39, align 8, !tbaa !54
  tail call void @_ZN4ncnn3Mat6createEiimPNS_9AllocatorE(ptr noundef nonnull align 8 dereferenceable(72) %2, i32 noundef %22, i32 noundef %26, i64 noundef %30, ptr noundef %40)
  %41 = load ptr, ptr %2, align 8, !tbaa !16
  %42 = icmp eq ptr %41, null
  br i1 %42, label %_ZNK4ncnn3Mat5emptyEv.exit.thread, label %_ZNK4ncnn3Mat5emptyEv.exit

_ZNK4ncnn3Mat5emptyEv.exit:                       ; preds = %38
  %43 = getelementptr inbounds nuw i8, ptr %2, i64 64
  %44 = load i64, ptr %43, align 8, !tbaa !17
  %45 = getelementptr inbounds nuw i8, ptr %2, i64 56
  %46 = load i32, ptr %45, align 8, !tbaa !44
  %47 = sext i32 %46 to i64
  %48 = mul i64 %44, %47
  %49 = icmp eq i64 %48, 0
  br i1 %49, label %_ZNK4ncnn3Mat5emptyEv.exit.thread, label %50

50:                                               ; preds = %_ZNK4ncnn3Mat5emptyEv.exit
  %51 = getelementptr inbounds nuw i8, ptr %3, i64 4
  %52 = load i32, ptr %51, align 4, !tbaa !47
  tail call void @__kmpc_push_num_threads(ptr nonnull @2, i32 %9, i32 %52)
  call void (ptr, i32, ptr, ...) @__kmpc_fork_call(ptr nonnull @2, i32 5, ptr nonnull @_ZNK4ncnn12InnerProduct7forwardERKNS_3MatERS1_RKNS_6OptionE.omp_outlined, ptr nonnull %6, ptr nonnull %1, ptr nonnull %2, ptr nonnull %0, ptr nonnull %5)
  br label %_ZNK4ncnn3Mat5emptyEv.exit.thread

53:                                               ; preds = %35, %18
  %54 = getelementptr inbounds nuw i8, ptr %3, i64 8
  %55 = load ptr, ptr %54, align 8, !tbaa !54
  tail call void @_ZN4ncnn3Mat6createEimPNS_9AllocatorE(ptr noundef nonnull align 8 dereferenceable(72) %2, i32 noundef %22, i64 noundef %30, ptr noundef %55)
  %56 = load ptr, ptr %2, align 8, !tbaa !16
  %57 = icmp eq ptr %56, null
  br i1 %57, label %_ZNK4ncnn3Mat5emptyEv.exit.thread, label %_ZNK4ncnn3Mat5emptyEv.exit27

_ZNK4ncnn3Mat5emptyEv.exit27:                     ; preds = %53
  %58 = getelementptr inbounds nuw i8, ptr %2, i64 64
  %59 = load i64, ptr %58, align 8, !tbaa !17
  %60 = getelementptr inbounds nuw i8, ptr %2, i64 56
  %61 = load i32, ptr %60, align 8, !tbaa !44
  %62 = sext i32 %61 to i64
  %63 = mul i64 %59, %62
  %64 = icmp eq i64 %63, 0
  br i1 %64, label %_ZNK4ncnn3Mat5emptyEv.exit.thread, label %65

65:                                               ; preds = %_ZNK4ncnn3Mat5emptyEv.exit27
  %66 = getelementptr inbounds nuw i8, ptr %3, i64 4
  %67 = load i32, ptr %66, align 4, !tbaa !47
  tail call void @__kmpc_push_num_threads(ptr nonnull @2, i32 %9, i32 %67)
  call void (ptr, i32, ptr, ...) @__kmpc_fork_call(ptr nonnull @2, i32 5, ptr nonnull @_ZNK4ncnn12InnerProduct7forwardERKNS_3MatERS1_RKNS_6OptionE.omp_outlined.1, ptr nonnull %0, ptr nonnull %7, ptr nonnull %8, ptr nonnull %1, ptr nonnull %2)
  br label %_ZNK4ncnn3Mat5emptyEv.exit.thread

_ZNK4ncnn3Mat5emptyEv.exit.thread:                ; preds = %53, %38, %_ZNK4ncnn3Mat5emptyEv.exit27, %_ZNK4ncnn3Mat5emptyEv.exit, %65, %50
  %.1 = phi i32 [ 0, %50 ], [ 0, %65 ], [ -100, %_ZNK4ncnn3Mat5emptyEv.exit ], [ -100, %_ZNK4ncnn3Mat5emptyEv.exit27 ], [ -100, %38 ], [ -100, %53 ]
  call void @llvm.lifetime.end.p0(i64 4, ptr nonnull %8) #9
  call void @llvm.lifetime.end.p0(i64 4, ptr nonnull %7) #9
  call void @llvm.lifetime.end.p0(i64 4, ptr nonnull %6) #9
  call void @llvm.lifetime.end.p0(i64 4, ptr nonnull %5) #9
  br label %68

68:                                               ; preds = %_ZNK4ncnn3Mat5emptyEv.exit.thread, %16
  %.0 = phi i32 [ %17, %16 ], [ %.1, %_ZNK4ncnn3Mat5emptyEv.exit.thread ]
  ret i32 %.0
}